target datalayout = "e-m:e-p270:32:32-p271:32:32-p272:64:64-i64:64-i128:128-f80:128-n8:16:32:64-S128"
target triple = "x86_64-pc-linux-gnu"

%"class.icu_77::GregorianCalendar" = type <{ %"class.icu_77::Calendar", double, i32, [4 x i8], double, i32, i8, i8, [2 x i8] }>
%"class.icu_77::Calendar" = type <{ %"class.icu_77::UObject", [24 x i32], [24 x i8], i8, [7 x i8], double, ptr, i8, i16, i8, i32, i32, i32, i8, i8, i16, [4 x i8], ptr, ptr }>
%"class.icu_77::UObject" = type { ptr }

; Function Attrs: mustprogress uwtable
define void @_ZN6icu_7717GregorianCalendarC2EiiiR10UErrorCode(ptr noundef nonnull align 8 dereferenceable(222) %0, i32 noundef %1, i32 noundef %2, i32 noundef %3, ptr noundef nonnull align 4 dereferenceable(4) %4) unnamed_addr #1 align 2 personality ptr @__gxx_personality_v0 {
  %6 = alloca ptr, align 8
  %7 = alloca i32, align 4
  %8 = alloca i32, align 4
  %9 = alloca i32, align 4
  %10 = alloca ptr, align 8
  %11 = alloca ptr, align 8
  %12 = alloca i32, align 4
  store ptr %0, ptr %6, align 8, !tbaa !3
  store i32 %1, ptr %7, align 4, !tbaa !31
  store i32 %2, ptr %8, align 4, !tbaa !31
  store i32 %3, ptr %9, align 4, !tbaa !31
  store ptr %4, ptr %10, align 8, !tbaa !8
  %13 = load ptr, ptr %6, align 8
  %14 = call noundef ptr @_ZN6icu_778TimeZone13createDefaultEv()
  %15 = call noundef nonnull align 8 dereferenceable(217) ptr @_ZN6icu_776Locale10getDefaultEv()
  %16 = load ptr, ptr %10, align 8, !tbaa !8
  call void @_ZN6icu_778CalendarC2EPNS_8TimeZoneERKNS_6LocaleER10UErrorCode(ptr noundef nonnull align 8 dereferenceable(192) %13, ptr noundef %14, ptr noundef nonnull align 8 dereferenceable(217) %15, ptr noundef nonnull align 4 dereferenceable(4) %16)
  store ptr getelementptr inbounds inrange(-16, 480) ({ [62 x ptr] }, ptr @_ZTVN6icu_7717GregorianCalendarE, i32 0, i32 0, i32 2), ptr %13, align 8, !tbaa !9
  %17 = getelementptr inbounds nuw %"class.icu_77::GregorianCalendar", ptr %13, i32 0, i32 1
  store double 0xC2A63A0D36A80000, ptr %17, align 8, !tbaa !11
  %18 = getelementptr inbounds nuw %"class.icu_77::GregorianCalendar", ptr %13, i32 0, i32 2
  store i32 2299161, ptr %18, align 8, !tbaa !23
  %19 = getelementptr inbounds nuw %"class.icu_77::GregorianCalendar", ptr %13, i32 0, i32 4
  %20 = getelementptr inbounds nuw %"class.icu_77::GregorianCalendar", ptr %13, i32 0, i32 1
  %21 = load double, ptr %20, align 8, !tbaa !11
  store double %21, ptr %19, align 8, !tbaa !24
  %22 = getelementptr inbounds nuw %"class.icu_77::GregorianCalendar", ptr %13, i32 0, i32 5
  store i32 1582, ptr %22, align 8, !tbaa !25
  %23 = getelementptr inbounds nuw %"class.icu_77::GregorianCalendar", ptr %13, i32 0, i32 6
  store i8 1, ptr %23, align 4, !tbaa !26
  %24 = getelementptr inbounds nuw %"class.icu_77::GregorianCalendar", ptr %13, i32 0, i32 7
  store i8 0, ptr %24, align 1, !tbaa !27
  invoke void @_ZN6icu_778Calendar3setE19UCalendarDateFieldsi(ptr noundef nonnull align 8 dereferenceable(192) %13, i32 noundef 0, i32 noundef 1)
          to label %25 unwind label %32

25:                                               ; preds = %5
  %26 = load i32, ptr %7, align 4, !tbaa !31
  invoke void @_ZN6icu_778Calendar3setE19UCalendarDateFieldsi(ptr noundef nonnull align 8 dereferenceable(192) %13, i32 noundef 1, i32 noundef %26)
          to label %27 unwind label %32

27:                                               ; preds = %25
  %28 = load i32, ptr %8, align 4, !tbaa !31
  invoke void @_ZN6icu_778Calendar3setE19UCalendarDateFieldsi(ptr noundef nonnull align 8 dereferenceable(192) %13, i32 noundef 2, i32 noundef %28)
          to label %29 unwind label %32

29:                                               ; preds = %27
  %30 = load i32, ptr %9, align 4, !tbaa !31
  invoke void @_ZN6icu_778Calendar3setE19UCalendarDateFieldsi(ptr noundef nonnull align 8 dereferenceable(192) %13, i32 noundef 5, i32 noundef %30)
          to label %31 unwind label %32

31:                                               ; preds = %29
  ret void

32:                                               ; preds = %29, %27, %25, %5
  %33 = landingpad { ptr, i32 }
          cleanup
  %34 = extractvalue { ptr, i32 } %33, 0
  store ptr %34, ptr %11, align 8
  %35 = extractvalue { ptr, i32 } %33, 1
  store i32 %35, ptr %12, align 4
  call void @_ZN6icu_778CalendarD2Ev(ptr noundef nonnull align 8 dereferenceable(192) %13) #10
  br label %36

36:                                               ; preds = %32
  %37 = load ptr, ptr %11, align 8
  %38 = load i32, ptr %12, align 4
  %39 = insertvalue { ptr, i32 } poison, ptr %37, 0
  %40 = insertvalue { ptr, i32 } %39, i32 %38, 1
  resume { ptr, i32 } %40
}