; Function Attrs: mustprogress uwtable
define void @_ZN6icu_7717GregorianCalendarC2EiiiR10UErrorCode(ptr noundef nonnull align 8 dereferenceable(222) %0, i32 noundef %1, i32 noundef %2, i32 noundef %3, ptr noundef nonnull align 4 dereferenceable(4) %4) unnamed_addr #1 align 2 personality ptr @__gxx_personality_v0 {
  %6 = tail call noundef ptr @_ZN6icu_778TimeZone13createDefaultEv()
  %7 = tail call noundef nonnull align 8 dereferenceable(217) ptr @_ZN6icu_776Locale10getDefaultEv()
  tail call void @_ZN6icu_778CalendarC2EPNS_8TimeZoneERKNS_6LocaleER10UErrorCode(ptr noundef nonnull align 8 dereferenceable(192) %0, ptr noundef %6, ptr noundef nonnull align 8 dereferenceable(217) %7, ptr noundef nonnull align 4 dereferenceable(4) %4)
  store ptr getelementptr inbounds nuw inrange(-16, 480) (i8, ptr @_ZTVN6icu_7717GregorianCalendarE, i64 16), ptr %0, align 8, !tbaa !3
  %8 = getelementptr inbounds nuw i8, ptr %0, i64 192
  store double 0xC2A63A0D36A80000, ptr %8, align 8, !tbaa !6
  %9 = getelementptr inbounds nuw i8, ptr %0, i64 200
  store i32 2299161, ptr %9, align 8, !tbaa !20
  %10 = getelementptr inbounds nuw i8, ptr %0, i64 208
  store double 0xC2A63A0D36A80000, ptr %10, align 8, !tbaa !21
  %11 = getelementptr inbounds nuw i8, ptr %0, i64 216
  store i32 1582, ptr %11, align 8, !tbaa !22
  %12 = getelementptr inbounds nuw i8, ptr %0, i64 220
  store i8 1, ptr %12, align 4, !tbaa !23
  %13 = getelementptr inbounds nuw i8, ptr %0, i64 221
  store i8 0, ptr %13, align 1, !tbaa !24
  invoke void @_ZN6icu_778Calendar3setE19UCalendarDateFieldsi(ptr noundef nonnull align 8 dereferenceable(192) %0, i32 noundef 0, i32 noundef 1)
          to label %14 unwind label %18

14:                                               ; preds = %5
  invoke void @_ZN6icu_778Calendar3setE19UCalendarDateFieldsi(ptr noundef nonnull align 8 dereferenceable(192) %0, i32 noundef 1, i32 noundef %1)
          to label %15 unwind label %18

15:                                               ; preds = %14
  invoke void @_ZN6icu_778Calendar3setE19UCalendarDateFieldsi(ptr noundef nonnull align 8 dereferenceable(192) %0, i32 noundef 2, i32 noundef %2)
          to label %16 unwind label %18

16:                                               ; preds = %15
  invoke void @_ZN6icu_778Calendar3setE19UCalendarDateFieldsi(ptr noundef nonnull align 8 dereferenceable(192) %0, i32 noundef 5, i32 noundef %3)
          to label %17 unwind label %18

17:                                               ; preds = %16
  ret void

18:                                               ; preds = %16, %15, %14, %5
  %19 = landingpad { ptr, i32 }
          cleanup
  tail call void @_ZN6icu_778CalendarD2Ev(ptr noundef nonnull align 8 dereferenceable(192) %0) #9
  resume { ptr, i32 } %19
}